; Function Attrs: mustprogress uwtable
define void @_ZNK32pxrInternal_v0_24__pxrReserved__13UsdEditTarget11ComposeOverERKS0_(ptr dead_on_unwind noalias writable sret(%"class.pxrInternal_v0_24__pxrReserved__::UsdEditTarget") align 8 %0, ptr noundef nonnull align 8 dereferenceable(72) %1, ptr noundef nonnull align 8 dereferenceable(72) %2) local_unnamed_addr #0 align 2 personality ptr @__gxx_personality_v0 {
  %4 = alloca %"class.pxrInternal_v0_24__pxrReserved__::PcpMapFunction", align 8
  %5 = getelementptr inbounds nuw i8, ptr %1, i64 8
  %6 = load ptr, ptr %5, align 8
  %.not.i.i.i.i.i.i = icmp eq ptr %6, null
  br i1 %.not.i.i.i.i.i.i, label %_ZNK32pxrInternal_v0_24__pxrReserved__15TfWeakPtrFacadeINS_9TfWeakPtrENS_8SdfLayerEEntEv.exit.thread, label %_ZNK32pxrInternal_v0_24__pxrReserved__15TfWeakPtrFacadeINS_9TfWeakPtrENS_8SdfLayerEEntEv.exit

_ZNK32pxrInternal_v0_24__pxrReserved__15TfWeakPtrFacadeINS_9TfWeakPtrENS_8SdfLayerEEntEv.exit: ; preds = %3
  %7 = getelementptr inbounds nuw i8, ptr %6, i64 14
  %8 = load i8, ptr %7, align 2
  %9 = trunc i8 %8 to i1
  %10 = load ptr, ptr %1, align 8
  %11 = icmp eq ptr %10, null
  %not..i = xor i1 %9, true
  %.not1.i.i = select i1 %not..i, i1 true, i1 %11
  %cond.fr = freeze i1 %.not1.i.i
  br i1 %cond.fr, label %_ZNK32pxrInternal_v0_24__pxrReserved__15TfWeakPtrFacadeINS_9TfWeakPtrENS_8SdfLayerEEntEv.exit.thread, label %12

_ZNK32pxrInternal_v0_24__pxrReserved__15TfWeakPtrFacadeINS_9TfWeakPtrENS_8SdfLayerEEntEv.exit.thread: ; preds = %3, %_ZNK32pxrInternal_v0_24__pxrReserved__15TfWeakPtrFacadeINS_9TfWeakPtrENS_8SdfLayerEEntEv.exit
  br label %12

12:                                               ; preds = %_ZNK32pxrInternal_v0_24__pxrReserved__15TfWeakPtrFacadeINS_9TfWeakPtrENS_8SdfLayerEEntEv.exit, %_ZNK32pxrInternal_v0_24__pxrReserved__15TfWeakPtrFacadeINS_9TfWeakPtrENS_8SdfLayerEEntEv.exit.thread
  %13 = phi ptr [ %2, %_ZNK32pxrInternal_v0_24__pxrReserved__15TfWeakPtrFacadeINS_9TfWeakPtrENS_8SdfLayerEEntEv.exit.thread ], [ %1, %_ZNK32pxrInternal_v0_24__pxrReserved__15TfWeakPtrFacadeINS_9TfWeakPtrENS_8SdfLayerEEntEv.exit ]
  %14 = getelementptr inbounds nuw i8, ptr %1, i64 16
  %15 = getelementptr inbounds nuw i8, ptr %2, i64 16
  call void @_ZNK32pxrInternal_v0_24__pxrReserved__14PcpMapFunction7ComposeERKS0_(ptr dead_on_unwind nonnull writable sret(%"class.pxrInternal_v0_24__pxrReserved__::PcpMapFunction") align 8 %4, ptr noundef nonnull align 8 dereferenceable(56) %14, ptr noundef nonnull align 8 dereferenceable(56) %15)
  invoke void @_ZN32pxrInternal_v0_24__pxrReserved__13UsdEditTargetC1ERKNS_9TfWeakPtrINS_8SdfLayerEEERKNS_14PcpMapFunctionE(ptr noundef nonnull align 8 dereferenceable(72) %0, ptr noundef nonnull align 8 dereferenceable(16) %13, ptr noundef nonnull align 8 dereferenceable(56) %4)
          to label %16 unwind label %17

16:                                               ; preds = %12
  call void @_ZN32pxrInternal_v0_24__pxrReserved__14PcpMapFunction5_DataD2Ev(ptr noundef nonnull align 8 dereferenceable(56) %4) #14
  ret void

17:                                               ; preds = %12
  %18 = landingpad { ptr, i32 }
          cleanup
  call void @_ZN32pxrInternal_v0_24__pxrReserved__14PcpMapFunction5_DataD2Ev(ptr noundef nonnull align 8 dereferenceable(56) %4) #14
  resume { ptr, i32 } %18
}